target datalayout = "e-m:e-p270:32:32-p271:32:32-p272:64:64-i64:64-i128:128-f80:128-n8:16:32:64-S128"
target triple = "x86_64-pc-linux-gnu"

@hf_fe_extra_info_prec = internal global i32 0, align 4
@hf_fe_extra_info_lcs = internal global i32 0, align 4
@hf_fe_extra_info_ue_prob = internal global i32 0, align 4
@hf_fe_extra_info_spare = internal global i32 0, align 4

; Function Attrs: null_pointer_is_valid sspstrong uwtable
define internal zeroext i16 @be_fe_extra_info(ptr noundef %0, ptr noundef %1, ptr noundef %2, i32 noundef %3, i32 noundef %4, ptr noundef %5, i32 noundef %6) #1 {
  %8 = alloca ptr, align 8
  %9 = alloca ptr, align 8
  %10 = alloca ptr, align 8
  %11 = alloca i32, align 4
  %12 = alloca i32, align 4
  %13 = alloca ptr, align 8
  %14 = alloca i32, align 4
  %15 = alloca i32, align 4
  store ptr %0, ptr %8, align 8
  store ptr %1, ptr %9, align 8
  store ptr %2, ptr %10, align 8
  store i32 %3, ptr %11, align 4
  store i32 %4, ptr %12, align 4
  store ptr %5, ptr %13, align 8
  store i32 %6, ptr %14, align 4
  call void @llvm.lifetime.start.p0(i64 4, ptr %15) #5
  %16 = load i32, ptr %11, align 4
  store i32 %16, ptr %15, align 4
  %17 = load ptr, ptr %9, align 8
  %18 = load i32, ptr @hf_fe_extra_info_prec, align 4
  %19 = load ptr, ptr %8, align 8
  %20 = load i32, ptr %15, align 4
  %21 = call ptr @proto_tree_add_item(ptr noundef %17, i32 noundef %18, ptr noundef %19, i32 noundef %20, i32 noundef 1, i32 noundef 0)
  %22 = load ptr, ptr %9, align 8
  %23 = load i32, ptr @hf_fe_extra_info_lcs, align 4
  %24 = load ptr, ptr %8, align 8
  %25 = load i32, ptr %15, align 4
  %26 = call ptr @proto_tree_add_item(ptr noundef %22, i32 noundef %23, ptr noundef %24, i32 noundef %25, i32 noundef 1, i32 noundef 0)
  %27 = load ptr, ptr %9, align 8
  %28 = load i32, ptr @hf_fe_extra_info_ue_prob, align 4
  %29 = load ptr, ptr %8, align 8
  %30 = load i32, ptr %15, align 4
  %31 = call ptr @proto_tree_add_item(ptr noundef %27, i32 noundef %28, ptr noundef %29, i32 noundef %30, i32 noundef 1, i32 noundef 0)
  %32 = load ptr, ptr %9, align 8
  %33 = load i32, ptr @hf_fe_extra_info_spare, align 4
  %34 = load ptr, ptr %8, align 8
  %35 = load i32, ptr %15, align 4
  %36 = call ptr @proto_tree_add_item(ptr noundef %32, i32 noundef %33, ptr noundef %34, i32 noundef %35, i32 noundef 1, i32 noundef 0)
  %37 = load i32, ptr %15, align 4
  %38 = add i32 %37, 1
  store i32 %38, ptr %15, align 4
  %39 = load i32, ptr %15, align 4
  %40 = load i32, ptr %11, align 4
  %41 = sub i32 %39, %40
  %42 = trunc i32 %41 to i16
  call void @llvm.lifetime.end.p0(i64 4, ptr %15) #5
  ret i16 %42
}